; Function Attrs: mustprogress uwtable
define hidden void @_ZN8subtermsC2ERK7obj_refI4expr11ast_managerEbP10ptr_vectorIS1_EP8obj_markIS1_10bit_vector14default_t2uintIS1_EE(ptr noundef nonnull align 8 dereferenceable(40) initializes((0, 1), (8, 40)) %0, ptr noundef nonnull readonly align 8 captures(none) dereferenceable(16) %1, i1 noundef zeroext %2, ptr noundef %3, ptr noundef %4) unnamed_addr #3 align 2 personality ptr @__gxx_personality_v0 {
  %6 = zext i1 %2 to i8
  store i8 %6, ptr %0, align 8, !tbaa !73
  %7 = getelementptr inbounds nuw i8, ptr %0, i64 8
  %8 = getelementptr inbounds nuw i8, ptr %1, i64 8
  %9 = load ptr, ptr %8, align 8, !tbaa !87
  %10 = ptrtoint ptr %9 to i64
  store i64 %10, ptr %7, align 8, !tbaa !83
  %11 = getelementptr inbounds nuw i8, ptr %0, i64 16
  store ptr null, ptr %11, align 8, !tbaa !58
  %12 = getelementptr inbounds nuw i8, ptr %0, i64 24
  store ptr %3, ptr %12, align 8, !tbaa !85
  %13 = getelementptr inbounds nuw i8, ptr %0, i64 32
  store ptr %4, ptr %13, align 8, !tbaa !86
  %14 = load ptr, ptr %1, align 8, !tbaa !89
  %.not = icmp eq ptr %14, null
  br i1 %.not, label %24, label %15

15:                                               ; preds = %5
  %16 = getelementptr inbounds nuw i8, ptr %14, i64 8
  %17 = load i32, ptr %16, align 4, !tbaa !8
  %18 = add i32 %17, 1
  store i32 %18, ptr %16, align 4, !tbaa !8
  invoke void @_ZN6vectorIP4exprLb0EjE13expand_vectorEv(ptr noundef nonnull align 8 dereferenceable(8) %11)
          to label %_ZN15ref_vector_coreI4expr19ref_manager_wrapperIS0_11ast_managerEE9push_backEPS0_.exit unwind label %22

_ZN15ref_vector_coreI4expr19ref_manager_wrapperIS0_11ast_managerEE9push_backEPS0_.exit: ; preds = %15
  %.pre.i.i = load ptr, ptr %11, align 8, !tbaa !58
  %.phi.trans.insert.i.i = getelementptr inbounds i8, ptr %.pre.i.i, i64 -4
  %.pre2.i.i = load i32, ptr %.phi.trans.insert.i.i, align 4, !tbaa !56
  %19 = zext i32 %.pre2.i.i to i64
  %20 = getelementptr inbounds nuw ptr, ptr %.pre.i.i, i64 %19
  store ptr %14, ptr %20, align 8, !tbaa !35
  %21 = add i32 %.pre2.i.i, 1
  store i32 %21, ptr %.phi.trans.insert.i.i, align 4, !tbaa !56
  br label %24

22:                                               ; preds = %15
  %23 = landingpad { ptr, i32 }
          cleanup
  tail call void @_ZN15ref_vector_coreI4expr19ref_manager_wrapperIS0_11ast_managerEED2Ev(ptr noundef nonnull align 8 dereferenceable(16) %7) #24
  resume { ptr, i32 } %23

24:                                               ; preds = %_ZN15ref_vector_coreI4expr19ref_manager_wrapperIS0_11ast_managerEE9push_backEPS0_.exit, %5
  ret void
}